target datalayout = "e-m:e-p270:32:32-p271:32:32-p272:64:64-i64:64-i128:128-f80:128-n8:16:32:64-S128"
target triple = "x86_64-pc-linux-gnu"

%struct.AVCodecTag = type { i32, i32 }

@ff_codec_wav_tags = external constant [0 x %struct.AVCodecTag], align 4

; Function Attrs: nounwind uwtable
define i32 @ff_wav_codec_get_id(i32 noundef %0, i32 noundef %1) #0 {
  %3 = alloca i32, align 4
  %4 = alloca i32, align 4
  %5 = alloca i32, align 4
  %6 = alloca i32, align 4
  %7 = alloca i32, align 4
  store i32 %0, ptr %4, align 4, !tbaa !11
  store i32 %1, ptr %5, align 4, !tbaa !11
  call void @llvm.lifetime.start.p0(i64 4, ptr %6) #6
  %8 = load i32, ptr %4, align 4, !tbaa !11
  %9 = call i32 @ff_codec_get_id(ptr noundef @ff_codec_wav_tags, i32 noundef %8)
  store i32 %9, ptr %6, align 4, !tbaa !11
  %10 = load i32, ptr %6, align 4, !tbaa !11
  %11 = icmp ule i32 %10, 0
  br i1 %11, label %12, label %14

12:                                               ; preds = %2
  %13 = load i32, ptr %6, align 4, !tbaa !11
  store i32 %13, ptr %3, align 4
  store i32 1, ptr %7, align 4
  br label %36

14:                                               ; preds = %2
  %15 = load i32, ptr %6, align 4, !tbaa !11
  %16 = icmp eq i32 %15, 65536
  br i1 %16, label %17, label %20

17:                                               ; preds = %14
  %18 = load i32, ptr %5, align 4, !tbaa !11
  %19 = call i32 @ff_get_pcm_codec_id(i32 noundef %18, i32 noundef 0, i32 noundef 0, i32 noundef -2)
  store i32 %19, ptr %6, align 4, !tbaa !11
  br label %27

20:                                               ; preds = %14
  %21 = load i32, ptr %6, align 4, !tbaa !11
  %22 = icmp eq i32 %21, 65557
  br i1 %22, label %23, label %26

23:                                               ; preds = %20
  %24 = load i32, ptr %5, align 4, !tbaa !11
  %25 = call i32 @ff_get_pcm_codec_id(i32 noundef %24, i32 noundef 1, i32 noundef 0, i32 noundef 0)
  store i32 %25, ptr %6, align 4, !tbaa !11
  br label %26

26:                                               ; preds = %23, %20
  br label %27

27:                                               ; preds = %26, %17
  %28 = load i32, ptr %6, align 4, !tbaa !11
  %29 = icmp eq i32 %28, 69633
  br i1 %29, label %30, label %34

30:                                               ; preds = %27
  %31 = load i32, ptr %5, align 4, !tbaa !11
  %32 = icmp eq i32 %31, 8
  br i1 %32, label %33, label %34

33:                                               ; preds = %30
  store i32 69676, ptr %6, align 4, !tbaa !11
  br label %34

34:                                               ; preds = %33, %30, %27
  %35 = load i32, ptr %6, align 4, !tbaa !11
  store i32 %35, ptr %3, align 4
  store i32 1, ptr %7, align 4
  br label %36

36:                                               ; preds = %34, %12
  call void @llvm.lifetime.end.p0(i64 4, ptr %6) #6
  %37 = load i32, ptr %3, align 4
  ret i32 %37
}