; Function Attrs: nounwind uwtable
define i32 @ff_wav_codec_get_id(i32 noundef %0, i32 noundef %1) local_unnamed_addr #0 {
  %3 = tail call i32 @ff_codec_get_id(ptr noundef nonnull @ff_codec_wav_tags, i32 noundef %0) #7
  switch i32 %3, label %8 [
    i32 0, label %11
    i32 65536, label %4
    i32 65557, label %6
  ]

4:                                                ; preds = %2
  %5 = tail call i32 @ff_get_pcm_codec_id(i32 noundef %1, i32 noundef 0, i32 noundef 0, i32 noundef -2) #7
  br label %8

6:                                                ; preds = %2
  %7 = tail call i32 @ff_get_pcm_codec_id(i32 noundef %1, i32 noundef 1, i32 noundef 0, i32 noundef 0) #7
  br label %8

8:                                                ; preds = %2, %6, %4
  %.0 = phi i32 [ %5, %4 ], [ %7, %6 ], [ %3, %2 ]
  %9 = icmp eq i32 %.0, 69633
  %10 = icmp eq i32 %1, 8
  %or.cond = and i1 %10, %9
  %spec.store.select = select i1 %or.cond, i32 69676, i32 %.0
  br label %11

11:                                               ; preds = %2, %8
  %.012 = phi i32 [ %spec.store.select, %8 ], [ %3, %2 ]
  ret i32 %.012
}